target datalayout = "e-m:e-p270:32:32-p271:32:32-p272:64:64-i64:64-i128:128-f80:128-n8:16:32:64-S128"
target triple = "x86_64-pc-linux-gnu"

; Function Attrs: nounwind uwtable
define dso_local i32 @onig_is_error_code_needs_param(i32 noundef %0) #0 {
  %2 = alloca i32, align 4
  %3 = alloca i32, align 4
  store i32 %0, ptr %3, align 4, !tbaa !4
  %4 = load i32, ptr %3, align 4, !tbaa !4
  switch i32 %4, label %6 [
    i32 -217, label %5
    i32 -218, label %5
    i32 -219, label %5
    i32 -220, label %5
    i32 -215, label %5
    i32 -216, label %5
    i32 -223, label %5
  ]

5:                                                ; preds = %1, %1, %1, %1, %1, %1, %1
  store i32 1, ptr %2, align 4
  br label %7

6:                                                ; preds = %1
  store i32 0, ptr %2, align 4
  br label %7

7:                                                ; preds = %6, %5
  %8 = load i32, ptr %2, align 4
  ret i32 %8
}